; Function Attrs: mustprogress ssp uwtable
define hidden void @_ZN6open3d4core6kernel7NonZeroERKNS0_6TensorE(ptr dead_on_unwind noalias writable sret(%"class.open3d::core::Tensor") align 8 %0, ptr noundef nonnull align 8 dereferenceable(160) %1) local_unnamed_addr #0 {
  %3 = load ptr, ptr %1, align 8, !tbaa !4
  %4 = getelementptr inbounds nuw i8, ptr %3, i64 16
  %5 = load ptr, ptr %4, align 8
  %6 = tail call i64 %5(ptr noundef nonnull align 8 dereferenceable(8) %1)
  %7 = and i64 %6, 4294967295
  %8 = icmp eq i64 %7, 0
  br i1 %8, label %9, label %10

9:                                                ; preds = %2
  tail call void @_ZN6open3d4core6kernel10NonZeroCPUERKNS0_6TensorE(ptr dead_on_unwind writable sret(%"class.open3d::core::Tensor") align 8 %0, ptr noundef nonnull align 8 dereferenceable(160) %1)
  ret void

10:                                               ; preds = %2
  %11 = load ptr, ptr %1, align 8, !tbaa !4
  %12 = getelementptr inbounds nuw i8, ptr %11, i64 16
  %13 = load ptr, ptr %12, align 8
  %14 = tail call i64 %13(ptr noundef nonnull align 8 dereferenceable(8) %1)
  %15 = and i64 %14, 4294967295
  %16 = icmp eq i64 %15, 2
  br i1 %16, label %17, label %18

17:                                               ; preds = %10
  tail call void @_ZN6open3d7utility6Logger9LogError_IJEEEvPKciS4_S4_DpOT_(ptr noundef nonnull @.str, i32 noundef 25, ptr noundef nonnull @__PRETTY_FUNCTION__._ZN6open3d4core6kernel7NonZeroERKNS0_6TensorE, ptr noundef nonnull @.str.1) #10
  unreachable

18:                                               ; preds = %10
  %19 = load ptr, ptr %1, align 8, !tbaa !4
  %20 = getelementptr inbounds nuw i8, ptr %19, i64 16
  %21 = load ptr, ptr %20, align 8
  %22 = tail call i64 %21(ptr noundef nonnull align 8 dereferenceable(8) %1)
  %23 = and i64 %22, 4294967295
  %24 = icmp eq i64 %23, 1
  br i1 %24, label %25, label %26

25:                                               ; preds = %18
  tail call void @_ZN6open3d7utility6Logger9LogError_IJEEEvPKciS4_S4_DpOT_(ptr noundef nonnull @.str, i32 noundef 31, ptr noundef nonnull @__PRETTY_FUNCTION__._ZN6open3d4core6kernel7NonZeroERKNS0_6TensorE, ptr noundef nonnull @.str.2) #10
  unreachable

26:                                               ; preds = %18
  tail call void @_ZN6open3d7utility6Logger9LogError_IJEEEvPKciS4_S4_DpOT_(ptr noundef nonnull @.str, i32 noundef 34, ptr noundef nonnull @__PRETTY_FUNCTION__._ZN6open3d4core6kernel7NonZeroERKNS0_6TensorE, ptr noundef nonnull @.str.3) #10
  unreachable
}